target datalayout = "e-m:e-p270:32:32-p271:32:32-p272:64:64-i64:64-i128:128-f80:128-n8:16:32:64-S128"
target triple = "x86_64-pc-linux-gnu"

%struct.cavs_vector = type { i16, i16, i16, i16 }
%struct.AVSContext = type { ptr, %struct.BlockDSPContext, %struct.H264ChromaContext, %struct.VideoDSPContext, %struct.CAVSDSPContext, %struct.GetBitContext, %struct.AVSFrame, [2 x %struct.AVSFrame], [2 x i32], i32, i32, i32, i32, i32, i32, i32, i32, i32, i32, i32, i32, i32, i32, i32, i32, i32, i32, i32, i32, i32, ptr, ptr, ptr, i32, ptr, [24 x %struct.cavs_vector], [2 x ptr], ptr, [9 x i32], ptr, i64, i64, [4 x i32], i32, i32, i32, i32, [64 x i8], ptr, ptr, ptr, [26 x i8], [10 x i8], [10 x i8], [26 x i8], i8, i8, i8, [8 x ptr], [7 x ptr], ptr, i32, [2 x i32], [2 x i32], ptr, i32, ptr }
%struct.BlockDSPContext = type { ptr, ptr, [2 x ptr] }
%struct.H264ChromaContext = type { [4 x ptr], [4 x ptr] }
%struct.VideoDSPContext = type { ptr, ptr }
%struct.CAVSDSPContext = type { [2 x [16 x ptr]], [2 x [16 x ptr]], ptr, ptr, ptr, ptr, ptr, i32 }
%struct.GetBitContext = type { ptr, ptr, i32, i32, i32 }
%struct.AVSFrame = type { ptr, i32 }
%struct.AVFrame = type { [8 x ptr], [8 x i32], ptr, i32, i32, i32, i32, i32, %struct.AVRational, i64, i64, %struct.AVRational, i32, ptr, i32, i32, [8 x ptr], ptr, i32, ptr, i32, i32, i32, i32, i32, i32, i32, i64, ptr, i32, ptr, ptr, i64, i64, i64, i64, ptr, %struct.AVChannelLayout, i64 }
%struct.AVRational = type { i32, i32 }
%struct.AVChannelLayout = type { i32, i32, %union.anon, ptr }
%union.anon = type { i64 }

@un_mv = internal constant %struct.cavs_vector { i16 0, i16 0, i16 1, i16 -1 }, align 2
@ff_cavs_dir_mv = external constant %struct.cavs_vector, align 2

; Function Attrs: inlinehint nounwind uwtable
define internal void @set_mvs(ptr noundef %0, i32 noundef %1) #4 {
  %3 = alloca ptr, align 8
  %4 = alloca i32, align 4
  store ptr %0, ptr %3, align 8, !tbaa !51
  store i32 %1, ptr %4, align 4, !tbaa !9
  %5 = load i32, ptr %4, align 4, !tbaa !9
  switch i32 %5, label %25 [
    i32 0, label %6
    i32 1, label %15
    i32 2, label %20
  ]

6:                                                ; preds = %2
  %7 = load ptr, ptr %3, align 8, !tbaa !51
  %8 = getelementptr inbounds %struct.cavs_vector, ptr %7, i64 4
  %9 = load ptr, ptr %3, align 8, !tbaa !51
  %10 = getelementptr inbounds %struct.cavs_vector, ptr %9, i64 0
  call void @llvm.memcpy.p0.p0.i64(ptr align 2 %8, ptr align 2 %10, i64 8, i1 false), !tbaa.struct !77
  %11 = load ptr, ptr %3, align 8, !tbaa !51
  %12 = getelementptr inbounds %struct.cavs_vector, ptr %11, i64 5
  %13 = load ptr, ptr %3, align 8, !tbaa !51
  %14 = getelementptr inbounds %struct.cavs_vector, ptr %13, i64 0
  call void @llvm.memcpy.p0.p0.i64(ptr align 2 %12, ptr align 2 %14, i64 8, i1 false), !tbaa.struct !77
  br label %15

15:                                               ; preds = %2, %6
  %16 = load ptr, ptr %3, align 8, !tbaa !51
  %17 = getelementptr inbounds %struct.cavs_vector, ptr %16, i64 1
  %18 = load ptr, ptr %3, align 8, !tbaa !51
  %19 = getelementptr inbounds %struct.cavs_vector, ptr %18, i64 0
  call void @llvm.memcpy.p0.p0.i64(ptr align 2 %17, ptr align 2 %19, i64 8, i1 false), !tbaa.struct !77
  br label %25

20:                                               ; preds = %2
  %21 = load ptr, ptr %3, align 8, !tbaa !51
  %22 = getelementptr inbounds %struct.cavs_vector, ptr %21, i64 4
  %23 = load ptr, ptr %3, align 8, !tbaa !51
  %24 = getelementptr inbounds %struct.cavs_vector, ptr %23, i64 0
  call void @llvm.memcpy.p0.p0.i64(ptr align 2 %22, ptr align 2 %24, i64 8, i1 false), !tbaa.struct !77
  br label %25

25:                                               ; preds = %2, %20, %15
  ret void
}

; Function Attrs: nounwind uwtable
define i32 @ff_cavs_init_pic(ptr noundef %0) #0 {
  %2 = alloca ptr, align 8
  %3 = alloca i32, align 4
  store ptr %0, ptr %2, align 8, !tbaa !4
  call void @llvm.lifetime.start.p0(i64 4, ptr %3) #10
  store i32 0, ptr %3, align 4, !tbaa !9
  br label %4

4:                                                ; preds = %13, %1
  %5 = load i32, ptr %3, align 4, !tbaa !9
  %6 = icmp sle i32 %5, 20
  br i1 %6, label %7, label %16

7:                                                ; preds = %4
  %8 = load ptr, ptr %2, align 8, !tbaa !4
  %9 = getelementptr inbounds nuw %struct.AVSContext, ptr %8, i32 0, i32 35
  %10 = load i32, ptr %3, align 4, !tbaa !9
  %11 = sext i32 %10 to i64
  %12 = getelementptr inbounds [24 x %struct.cavs_vector], ptr %9, i64 0, i64 %11
  call void @llvm.memcpy.p0.p0.i64(ptr align 8 %12, ptr align 2 @un_mv, i64 8, i1 false), !tbaa.struct !77
  br label %13

13:                                               ; preds = %7
  %14 = load i32, ptr %3, align 4, !tbaa !9
  %15 = add nsw i32 %14, 4
  store i32 %15, ptr %3, align 4, !tbaa !9
  br label %4, !llvm.loop !86

16:                                               ; preds = %4
  %17 = load ptr, ptr %2, align 8, !tbaa !4
  %18 = getelementptr inbounds nuw %struct.AVSContext, ptr %17, i32 0, i32 35
  %19 = getelementptr inbounds [24 x %struct.cavs_vector], ptr %18, i64 0, i64 17
  call void @llvm.memcpy.p0.p0.i64(ptr align 8 %19, ptr align 2 @ff_cavs_dir_mv, i64 8, i1 false), !tbaa.struct !77
  %20 = load ptr, ptr %2, align 8, !tbaa !4
  %21 = getelementptr inbounds nuw %struct.AVSContext, ptr %20, i32 0, i32 35
  %22 = getelementptr inbounds [24 x %struct.cavs_vector], ptr %21, i64 0, i64 17
  call void @set_mvs(ptr noundef %22, i32 noundef 0)
  %23 = load ptr, ptr %2, align 8, !tbaa !4
  %24 = getelementptr inbounds nuw %struct.AVSContext, ptr %23, i32 0, i32 35
  %25 = getelementptr inbounds [24 x %struct.cavs_vector], ptr %24, i64 0, i64 5
  call void @llvm.memcpy.p0.p0.i64(ptr align 8 %25, ptr align 2 @ff_cavs_dir_mv, i64 8, i1 false), !tbaa.struct !77
  %26 = load ptr, ptr %2, align 8, !tbaa !4
  %27 = getelementptr inbounds nuw %struct.AVSContext, ptr %26, i32 0, i32 35
  %28 = getelementptr inbounds [24 x %struct.cavs_vector], ptr %27, i64 0, i64 5
  call void @set_mvs(ptr noundef %28, i32 noundef 0)
  %29 = load ptr, ptr %2, align 8, !tbaa !4
  %30 = getelementptr inbounds nuw %struct.AVSContext, ptr %29, i32 0, i32 38
  %31 = getelementptr inbounds [9 x i32], ptr %30, i64 0, i64 6
  store i32 -1, ptr %31, align 8, !tbaa !9
  %32 = load ptr, ptr %2, align 8, !tbaa !4
  %33 = getelementptr inbounds nuw %struct.AVSContext, ptr %32, i32 0, i32 38
  %34 = getelementptr inbounds [9 x i32], ptr %33, i64 0, i64 3
  store i32 -1, ptr %34, align 4, !tbaa !9
  %35 = load ptr, ptr %2, align 8, !tbaa !4
  %36 = getelementptr inbounds nuw %struct.AVSContext, ptr %35, i32 0, i32 6
  %37 = getelementptr inbounds nuw %struct.AVSFrame, ptr %36, i32 0, i32 0
  %38 = load ptr, ptr %37, align 8, !tbaa !84
  %39 = getelementptr inbounds nuw %struct.AVFrame, ptr %38, i32 0, i32 0
  %40 = getelementptr inbounds [8 x ptr], ptr %39, i64 0, i64 0
  %41 = load ptr, ptr %40, align 8, !tbaa !57
  %42 = load ptr, ptr %2, align 8, !tbaa !4
  %43 = getelementptr inbounds nuw %struct.AVSContext, ptr %42, i32 0, i32 30
  store ptr %41, ptr %43, align 8, !tbaa !33
  %44 = load ptr, ptr %2, align 8, !tbaa !4
  %45 = getelementptr inbounds nuw %struct.AVSContext, ptr %44, i32 0, i32 6
  %46 = getelementptr inbounds nuw %struct.AVSFrame, ptr %45, i32 0, i32 0
  %47 = load ptr, ptr %46, align 8, !tbaa !84
  %48 = getelementptr inbounds nuw %struct.AVFrame, ptr %47, i32 0, i32 0
  %49 = getelementptr inbounds [8 x ptr], ptr %48, i64 0, i64 1
  %50 = load ptr, ptr %49, align 8, !tbaa !57
  %51 = load ptr, ptr %2, align 8, !tbaa !4
  %52 = getelementptr inbounds nuw %struct.AVSContext, ptr %51, i32 0, i32 31
  store ptr %50, ptr %52, align 8, !tbaa !35
  %53 = load ptr, ptr %2, align 8, !tbaa !4
  %54 = getelementptr inbounds nuw %struct.AVSContext, ptr %53, i32 0, i32 6
  %55 = getelementptr inbounds nuw %struct.AVSFrame, ptr %54, i32 0, i32 0
  %56 = load ptr, ptr %55, align 8, !tbaa !84
  %57 = getelementptr inbounds nuw %struct.AVFrame, ptr %56, i32 0, i32 0
  %58 = getelementptr inbounds [8 x ptr], ptr %57, i64 0, i64 2
  %59 = load ptr, ptr %58, align 8, !tbaa !57
  %60 = load ptr, ptr %2, align 8, !tbaa !4
  %61 = getelementptr inbounds nuw %struct.AVSContext, ptr %60, i32 0, i32 32
  store ptr %59, ptr %61, align 8, !tbaa !37
  %62 = load ptr, ptr %2, align 8, !tbaa !4
  %63 = getelementptr inbounds nuw %struct.AVSContext, ptr %62, i32 0, i32 6
  %64 = getelementptr inbounds nuw %struct.AVSFrame, ptr %63, i32 0, i32 0
  %65 = load ptr, ptr %64, align 8, !tbaa !84
  %66 = getelementptr inbounds nuw %struct.AVFrame, ptr %65, i32 0, i32 1
  %67 = getelementptr inbounds [8 x i32], ptr %66, i64 0, i64 0
  %68 = load i32, ptr %67, align 8, !tbaa !9
  %69 = sext i32 %68 to i64
  %70 = load ptr, ptr %2, align 8, !tbaa !4
  %71 = getelementptr inbounds nuw %struct.AVSContext, ptr %70, i32 0, i32 40
  store i64 %69, ptr %71, align 8, !tbaa !34
  %72 = load ptr, ptr %2, align 8, !tbaa !4
  %73 = getelementptr inbounds nuw %struct.AVSContext, ptr %72, i32 0, i32 6
  %74 = getelementptr inbounds nuw %struct.AVSFrame, ptr %73, i32 0, i32 0
  %75 = load ptr, ptr %74, align 8, !tbaa !84
  %76 = getelementptr inbounds nuw %struct.AVFrame, ptr %75, i32 0, i32 1
  %77 = getelementptr inbounds [8 x i32], ptr %76, i64 0, i64 1
  %78 = load i32, ptr %77, align 4, !tbaa !9
  %79 = sext i32 %78 to i64
  %80 = load ptr, ptr %2, align 8, !tbaa !4
  %81 = getelementptr inbounds nuw %struct.AVSContext, ptr %80, i32 0, i32 41
  store i64 %79, ptr %81, align 8, !tbaa !36
  %82 = load ptr, ptr %2, align 8, !tbaa !4
  %83 = getelementptr inbounds nuw %struct.AVSContext, ptr %82, i32 0, i32 40
  %84 = load i64, ptr %83, align 8, !tbaa !34
  %85 = mul nsw i64 8, %84
  %86 = trunc i64 %85 to i32
  %87 = load ptr, ptr %2, align 8, !tbaa !4
  %88 = getelementptr inbounds nuw %struct.AVSContext, ptr %87, i32 0, i32 42
  %89 = getelementptr inbounds [4 x i32], ptr %88, i64 0, i64 2
  store i32 %86, ptr %89, align 8, !tbaa !9
  %90 = load ptr, ptr %2, align 8, !tbaa !4
  %91 = getelementptr inbounds nuw %struct.AVSContext, ptr %90, i32 0, i32 40
  %92 = load i64, ptr %91, align 8, !tbaa !34
  %93 = mul nsw i64 8, %92
  %94 = add nsw i64 %93, 8
  %95 = trunc i64 %94 to i32
  %96 = load ptr, ptr %2, align 8, !tbaa !4
  %97 = getelementptr inbounds nuw %struct.AVSContext, ptr %96, i32 0, i32 42
  %98 = getelementptr inbounds [4 x i32], ptr %97, i64 0, i64 3
  store i32 %95, ptr %98, align 4, !tbaa !9
  %99 = load ptr, ptr %2, align 8, !tbaa !4
  %100 = getelementptr inbounds nuw %struct.AVSContext, ptr %99, i32 0, i32 27
  store i32 0, ptr %100, align 8, !tbaa !82
  %101 = load ptr, ptr %2, align 8, !tbaa !4
  %102 = getelementptr inbounds nuw %struct.AVSContext, ptr %101, i32 0, i32 26
  store i32 0, ptr %102, align 4, !tbaa !67
  %103 = load ptr, ptr %2, align 8, !tbaa !4
  %104 = getelementptr inbounds nuw %struct.AVSContext, ptr %103, i32 0, i32 25
  store i32 0, ptr %104, align 8, !tbaa !26
  %105 = load ptr, ptr %2, align 8, !tbaa !4
  %106 = getelementptr inbounds nuw %struct.AVSContext, ptr %105, i32 0, i32 28
  store i32 0, ptr %106, align 4, !tbaa !41
  call void @llvm.lifetime.end.p0(i64 4, ptr %3) #10
  ret i32 0
}