; Function Attrs: nofree norecurse nosync nounwind memory(read, argmem: readwrite, inaccessiblemem: none) uwtable
define noundef i32 @ff_cavs_init_pic(ptr noundef captures(none) %0) local_unnamed_addr #7 {
  %2 = getelementptr inbounds nuw i8, ptr %0, i64 896
  br label %3

3:                                                ; preds = %1, %3
  %indvars.iv = phi i64 [ 0, %1 ], [ %indvars.iv.next, %3 ]
  %4 = getelementptr inbounds nuw [24 x %struct.cavs_vector], ptr %2, i64 0, i64 %indvars.iv
  store i64 -281470681743360, ptr %4, align 8
  %indvars.iv.next = add nuw nsw i64 %indvars.iv, 4
  %5 = icmp samesign ult i64 %indvars.iv, 17
  br i1 %5, label %3, label %6, !llvm.loop !74

6:                                                ; preds = %3
  %7 = getelementptr inbounds nuw i8, ptr %0, i64 1032
  %8 = load i64, ptr @ff_cavs_dir_mv, align 2
  store i64 %8, ptr %7, align 8
  %9 = getelementptr inbounds nuw i8, ptr %0, i64 1064
  store i64 %8, ptr %9, align 2
  %10 = getelementptr inbounds nuw i8, ptr %0, i64 1072
  store i64 %8, ptr %10, align 2
  %11 = getelementptr inbounds nuw i8, ptr %0, i64 1040
  store i64 %8, ptr %11, align 2
  %12 = getelementptr inbounds nuw i8, ptr %0, i64 936
  store i64 %8, ptr %12, align 8
  %13 = getelementptr inbounds nuw i8, ptr %0, i64 968
  store i64 %8, ptr %13, align 2
  %14 = getelementptr inbounds nuw i8, ptr %0, i64 976
  store i64 %8, ptr %14, align 2
  %15 = getelementptr inbounds nuw i8, ptr %0, i64 944
  store i64 %8, ptr %15, align 2
  %16 = getelementptr inbounds nuw i8, ptr %0, i64 1136
  store i32 -1, ptr %16, align 8, !tbaa !56
  %17 = getelementptr inbounds nuw i8, ptr %0, i64 1124
  store i32 -1, ptr %17, align 4, !tbaa !56
  %18 = getelementptr inbounds nuw i8, ptr %0, i64 712
  %19 = load ptr, ptr %18, align 8, !tbaa !72
  %20 = load ptr, ptr %19, align 8, !tbaa !53
  %21 = getelementptr inbounds nuw i8, ptr %0, i64 856
  store ptr %20, ptr %21, align 8, !tbaa !30
  %22 = getelementptr inbounds nuw i8, ptr %19, i64 8
  %23 = load ptr, ptr %22, align 8, !tbaa !53
  %24 = getelementptr inbounds nuw i8, ptr %0, i64 864
  store ptr %23, ptr %24, align 8, !tbaa !32
  %25 = getelementptr inbounds nuw i8, ptr %19, i64 16
  %26 = load ptr, ptr %25, align 8, !tbaa !53
  %27 = getelementptr inbounds nuw i8, ptr %0, i64 872
  store ptr %26, ptr %27, align 8, !tbaa !34
  %28 = getelementptr inbounds nuw i8, ptr %19, i64 64
  %29 = load i32, ptr %28, align 8, !tbaa !56
  %30 = sext i32 %29 to i64
  %31 = getelementptr inbounds nuw i8, ptr %0, i64 1160
  store i64 %30, ptr %31, align 8, !tbaa !31
  %32 = getelementptr inbounds nuw i8, ptr %19, i64 68
  %33 = load i32, ptr %32, align 4, !tbaa !56
  %34 = sext i32 %33 to i64
  %35 = getelementptr inbounds nuw i8, ptr %0, i64 1168
  store i64 %34, ptr %35, align 8, !tbaa !33
  %36 = shl i32 %29, 3
  %37 = getelementptr inbounds nuw i8, ptr %0, i64 1184
  store i32 %36, ptr %37, align 8, !tbaa !56
  %38 = add i32 %36, 8
  %39 = getelementptr inbounds nuw i8, ptr %0, i64 1188
  store i32 %38, ptr %39, align 4, !tbaa !56
  %40 = getelementptr inbounds nuw i8, ptr %0, i64 832
  tail call void @llvm.memset.p0.i64(ptr noundef nonnull align 8 dereferenceable(16) %40, i8 0, i64 16, i1 false)
  ret i32 0
}